; Function Attrs: mustprogress nounwind uwtable
define internal void @_ZN7testing8internal30ValuesInIteratorRangeGeneratorIN4perf12_GLOBAL__N_18MatDepthEED0Ev(ptr noundef nonnull align 8 dereferenceable(32) %0) unnamed_addr #6 align 2 personality ptr @__gxx_personality_v0 {
  store ptr getelementptr inbounds inrange(-16, 32) (i8, ptr @_ZTVN7testing8internal30ValuesInIteratorRangeGeneratorIN4perf12_GLOBAL__N_18MatDepthEEE, i64 16), ptr %0, align 8
  %2 = getelementptr inbounds i8, ptr %0, i64 8
  %.val.i = load ptr, ptr %2, align 8
  %.not.i.i.i.i = icmp eq ptr %.val.i, null
  br i1 %.not.i.i.i.i, label %_ZN7testing8internal30ValuesInIteratorRangeGeneratorIN4perf12_GLOBAL__N_18MatDepthEED2Ev.exit, label %3

3:                                                ; preds = %1
  tail call void @_ZdlPv(ptr noundef nonnull %.val.i) #29
  br label %_ZN7testing8internal30ValuesInIteratorRangeGeneratorIN4perf12_GLOBAL__N_18MatDepthEED2Ev.exit

_ZN7testing8internal30ValuesInIteratorRangeGeneratorIN4perf12_GLOBAL__N_18MatDepthEED2Ev.exit: ; preds = %1, %3
  tail call void @_ZdlPv(ptr noundef nonnull %0) #29
  ret void
}